; Function Attrs: mustprogress nounwind uwtable
define hidden void @_ZN27MonitorInflateCauseConstant9serializeER19JfrCheckpointWriter(ptr nocapture nonnull readnone align 8 %0, ptr noundef nonnull align 8 dereferenceable(73) %1) unnamed_addr #0 align 2 {
  tail call void @_ZN19JfrCheckpointWriter11write_countEj(ptr noundef nonnull align 8 dereferenceable(73) %1, i32 noundef 7) #8
  br label %3

3:                                                ; preds = %2, %3
  %indvars.iv = phi i64 [ 0, %2 ], [ %indvars.iv.next, %3 ]
  tail call void @_ZN19JfrCheckpointWriter9write_keyEm(ptr noundef nonnull align 8 dereferenceable(73) %1, i64 noundef %indvars.iv) #8
  %4 = trunc nuw nsw i64 %indvars.iv to i32
  %5 = tail call noundef ptr @_ZN18ObjectSynchronizer18inflate_cause_nameENS_12InflateCauseE(i32 noundef %4) #8
  tail call void @_ZN10WriterHostI11EncoderHostI20BigEndianEncoderImplS1_ES0_I20Varint128EncoderImplS1_E30AcquireReleaseMemoryWriterHostI7AdapterI18JfrCheckpointFlushE8StackObjEE10write_utf8EPKc(ptr noundef nonnull align 8 dereferenceable(41) %1, ptr noundef %5)
  %indvars.iv.next = add nuw nsw i64 %indvars.iv, 1
  %exitcond.not = icmp eq i64 %indvars.iv.next, 7
  br i1 %exitcond.not, label %6, label %3, !llvm.loop !9

6:                                                ; preds = %3
  ret void
}